target datalayout = "e-m:e-p270:32:32-p271:32:32-p272:64:64-i64:64-i128:128-f80:128-n8:16:32:64-S128"
target triple = "x86_64-unknown-linux-gnu"

%"struct.std::atomic.4" = type { %"struct.std::__atomic_base.5" }
%"struct.std::__atomic_base.5" = type { i8 }
%struct.grpc_slice_buffer = type { ptr, ptr, i64, i64, i64, [7 x %struct.grpc_slice] }
%struct.grpc_slice = type { ptr, %"union.grpc_slice::grpc_slice_data" }
%"union.grpc_slice::grpc_slice_data" = type { %"struct.grpc_slice::grpc_slice_data::grpc_slice_refcounted", [8 x i8] }
%"struct.grpc_slice::grpc_slice_data::grpc_slice_refcounted" = type { i64, ptr }
%"struct.std::atomic" = type { %"struct.std::__atomic_base" }
%"struct.std::__atomic_base" = type { i64 }
%"class.std::basic_string_view" = type { i64, ptr }
%"class.std::__cxx11::basic_string" = type { %"struct.std::__cxx11::basic_string<char>::_Alloc_hider", i64, %union.anon.3 }
%"struct.std::__cxx11::basic_string<char>::_Alloc_hider" = type { ptr }
%union.anon.3 = type { i64, [8 x i8] }
%"class.grpc_core::MemoryOwner" = type { %"class.grpc_event_engine::experimental::MemoryAllocator" }
%"class.grpc_event_engine::experimental::MemoryAllocator" = type { %"class.std::shared_ptr" }
%"class.std::shared_ptr" = type { %"class.std::__shared_ptr" }
%"class.std::__shared_ptr" = type { ptr, %"class.std::__shared_count" }
%"class.std::__shared_count" = type { ptr }
%"class.grpc_event_engine::experimental::MemoryAllocator::Reservation" = type { %"class.std::shared_ptr", i64 }
%"struct.(anonymous namespace)::grpc_tcp" = type <{ %struct.grpc_endpoint, ptr, i32, i32, double, double, %"class.grpc_core::RefCount", i64, i32, i32, %struct.grpc_slice_buffer, %"class.absl::lts_20230802::Mutex", ptr, ptr, i64, ptr, ptr, ptr, ptr, %struct.grpc_closure, %struct.grpc_closure, %struct.grpc_closure, %"class.std::__cxx11::basic_string", %"class.std::__cxx11::basic_string", %"class.grpc_core::MemoryOwner", %"class.grpc_event_engine::experimental::MemoryAllocator::Reservation", %"class.grpc_core::TracedBufferList", ptr, i32, i32, i64, %"class.grpc_core::TcpZerocopySendCtx", ptr, i32, i8, i8, i8, i8, i8, [7 x i8] }>
%struct.grpc_endpoint = type { ptr }
%"class.grpc_core::RefCount" = type { %"struct.std::atomic" }
%"class.absl::lts_20230802::Mutex" = type { %"struct.std::atomic" }
%struct.grpc_closure = type { %union.anon, ptr, ptr, %union.anon.2 }
%union.anon = type { ptr }
%union.anon.2 = type { i64 }
%"class.grpc_core::TracedBufferList" = type { %"class.absl::lts_20230802::Mutex", ptr, ptr }
%"class.grpc_core::TcpZerocopySendCtx" = type <{ ptr, ptr, i32, i32, %"class.absl::lts_20230802::Mutex", i32, %"struct.std::atomic.4", i8, [2 x i8], i64, %"class.std::unordered_map", i8, i8, i8, [5 x i8] }>
%"class.std::unordered_map" = type { %"class.std::_Hashtable" }
%"class.std::_Hashtable" = type { ptr, i64, %"struct.std::__detail::_Hash_node_base", i64, %"struct.std::__detail::_Prime_rehash_policy", ptr }
%"struct.std::__detail::_Hash_node_base" = type { ptr }
%"struct.std::__detail::_Prime_rehash_policy" = type { float, i64 }
%"class.absl::lts_20230802::AlphaNum" = type { %"class.std::basic_string_view", [32 x i8] }

@.str = private unnamed_addr constant [119 x i8] c"generated/home/dtcxzyw/WorkSpace/Projects/compilers/llvm-opt-benchmark/bench/grpc/grpc/src/core/lib/iomgr/tcp_posix.cc\00", align 1
@_ZZL15update_rcvlowatPN12_GLOBAL__N_18grpc_tcpEE12kRcvLowatMax = internal constant i32 16777216, align 4
@.str.51 = private unnamed_addr constant [3 x i8] c"%s\00", align 1
@.str.52 = private unnamed_addr constant [30 x i8] c"Cannot set SO_RCVLOWAT on fd=\00", align 1
@.str.53 = private unnamed_addr constant [6 x i8] c" err=\00", align 1

; Function Attrs: noreturn nounwind uwtable
define linkonce_odr hidden void @__clang_call_terminate(ptr noundef %0) #13 comdat {
  %2 = call ptr @__cxa_begin_catch(ptr %0) #3
  call void @_ZSt9terminatev() #20
  unreachable
}

; Function Attrs: mustprogress nounwind uwtable
define linkonce_odr noundef i64 @_ZNSt11char_traitsIcE6lengthEPKc(ptr noundef %__s) #6 comdat align 2 {
entry:
  %__s.addr = alloca ptr, align 8
  store ptr %__s, ptr %__s.addr, align 8
  %0 = load ptr, ptr %__s.addr, align 8
  %call = call i64 @strlen(ptr noundef %0) #3
  ret i64 %call
}

; Function Attrs: mustprogress nounwind uwtable
define linkonce_odr void @_ZNSt17basic_string_viewIcSt11char_traitsIcEEC2Ev(ptr noundef nonnull align 8 dereferenceable(16) %this) unnamed_addr #6 comdat align 2 {
entry:
  %this.addr = alloca ptr, align 8
  store ptr %this, ptr %this.addr, align 8
  %this1 = load ptr, ptr %this.addr, align 8
  %_M_len = getelementptr inbounds %"class.std::basic_string_view", ptr %this1, i32 0, i32 0
  store i64 0, ptr %_M_len, align 8
  %_M_str = getelementptr inbounds %"class.std::basic_string_view", ptr %this1, i32 0, i32 1
  store ptr null, ptr %_M_str, align 8
  ret void
}

; Function Attrs: mustprogress nounwind uwtable
define linkonce_odr void @_ZNSt17basic_string_viewIcSt11char_traitsIcEEC2EPKc(ptr noundef nonnull align 8 dereferenceable(16) %this, ptr noundef nonnull %__str) unnamed_addr #6 comdat align 2 personality ptr @__gxx_personality_v0 {
entry:
  %this.addr = alloca ptr, align 8
  %__str.addr = alloca ptr, align 8
  store ptr %this, ptr %this.addr, align 8
  store ptr %__str, ptr %__str.addr, align 8
  %this1 = load ptr, ptr %this.addr, align 8
  %_M_len = getelementptr inbounds %"class.std::basic_string_view", ptr %this1, i32 0, i32 0
  %0 = load ptr, ptr %__str.addr, align 8
  %call = invoke noundef i64 @_ZNSt11char_traitsIcE6lengthEPKc(ptr noundef %0)
          to label %invoke.cont unwind label %terminate.lpad

invoke.cont:                                      ; preds = %entry
  store i64 %call, ptr %_M_len, align 8
  %_M_str = getelementptr inbounds %"class.std::basic_string_view", ptr %this1, i32 0, i32 1
  %1 = load ptr, ptr %__str.addr, align 8
  store ptr %1, ptr %_M_str, align 8
  ret void

terminate.lpad:                                   ; preds = %entry
  %2 = landingpad { ptr, i32 }
          catch ptr null
  %3 = extractvalue { ptr, i32 } %2, 0
  call void @__clang_call_terminate(ptr %3) #20
  unreachable
}

; Function Attrs: mustprogress nounwind uwtable
define linkonce_odr void @_ZNSt17basic_string_viewIcSt11char_traitsIcEEC2EPKcm(ptr noundef nonnull align 8 dereferenceable(16) %this, ptr noundef %__str, i64 noundef %__len) unnamed_addr #6 comdat align 2 {
entry:
  %this.addr = alloca ptr, align 8
  %__str.addr = alloca ptr, align 8
  %__len.addr = alloca i64, align 8
  store ptr %this, ptr %this.addr, align 8
  store ptr %__str, ptr %__str.addr, align 8
  store i64 %__len, ptr %__len.addr, align 8
  %this1 = load ptr, ptr %this.addr, align 8
  %_M_len = getelementptr inbounds %"class.std::basic_string_view", ptr %this1, i32 0, i32 0
  %0 = load i64, ptr %__len.addr, align 8
  store i64 %0, ptr %_M_len, align 8
  %_M_str = getelementptr inbounds %"class.std::basic_string_view", ptr %this1, i32 0, i32 1
  %1 = load ptr, ptr %__str.addr, align 8
  store ptr %1, ptr %_M_str, align 8
  ret void
}

; Function Attrs: mustprogress nounwind uwtable
define linkonce_odr { i64, ptr } @_ZN4absl12lts_2023080218NullSafeStringViewEPKc(ptr noundef %p) #6 comdat {
entry:
  %retval = alloca %"class.std::basic_string_view", align 8
  %p.addr = alloca ptr, align 8
  store ptr %p, ptr %p.addr, align 8
  %0 = load ptr, ptr %p.addr, align 8
  %tobool = icmp ne ptr %0, null
  br i1 %tobool, label %cond.true, label %cond.false

cond.true:                                        ; preds = %entry
  %1 = load ptr, ptr %p.addr, align 8
  call void @_ZNSt17basic_string_viewIcSt11char_traitsIcEEC2EPKc(ptr noundef nonnull align 8 dereferenceable(16) %retval, ptr noundef %1) #3
  br label %cond.end

cond.false:                                       ; preds = %entry
  call void @_ZNSt17basic_string_viewIcSt11char_traitsIcEEC2Ev(ptr noundef nonnull align 8 dereferenceable(16) %retval) #3
  br label %cond.end

cond.end:                                         ; preds = %cond.false, %cond.true
  %2 = load { i64, ptr }, ptr %retval, align 8
  ret { i64, ptr } %2
}

; Function Attrs: mustprogress uwtable
define linkonce_odr void @_ZN4absl12lts_202308028AlphaNumC2Ei(ptr noundef nonnull align 8 dereferenceable(48) %this, i32 noundef %x) unnamed_addr #4 comdat align 2 {
entry:
  %this.addr = alloca ptr, align 8
  %x.addr = alloca i32, align 4
  store ptr %this, ptr %this.addr, align 8
  store i32 %x, ptr %x.addr, align 4
  %this1 = load ptr, ptr %this.addr, align 8
  %piece_ = getelementptr inbounds %"class.absl::lts_20230802::AlphaNum", ptr %this1, i32 0, i32 0
  %digits_ = getelementptr inbounds %"class.absl::lts_20230802::AlphaNum", ptr %this1, i32 0, i32 1
  %arraydecay = getelementptr inbounds [32 x i8], ptr %digits_, i64 0, i64 0
  %0 = load i32, ptr %x.addr, align 4
  %digits_2 = getelementptr inbounds %"class.absl::lts_20230802::AlphaNum", ptr %this1, i32 0, i32 1
  %arraydecay3 = getelementptr inbounds [32 x i8], ptr %digits_2, i64 0, i64 0
  %call = call noundef ptr @_ZN4absl12lts_2023080216numbers_internal15FastIntToBufferEiPc(i32 noundef %0, ptr noundef %arraydecay3)
  %digits_4 = getelementptr inbounds %"class.absl::lts_20230802::AlphaNum", ptr %this1, i32 0, i32 1
  %arrayidx = getelementptr inbounds [32 x i8], ptr %digits_4, i64 0, i64 0
  %sub.ptr.lhs.cast = ptrtoint ptr %call to i64
  %sub.ptr.rhs.cast = ptrtoint ptr %arrayidx to i64
  %sub.ptr.sub = sub i64 %sub.ptr.lhs.cast, %sub.ptr.rhs.cast
  call void @_ZNSt17basic_string_viewIcSt11char_traitsIcEEC2EPKcm(ptr noundef nonnull align 8 dereferenceable(16) %piece_, ptr noundef %arraydecay, i64 noundef %sub.ptr.sub) #3
  ret void
}

; Function Attrs: mustprogress uwtable
define linkonce_odr void @_ZN4absl12lts_202308028AlphaNumC2EPKc(ptr noundef nonnull align 8 dereferenceable(48) %this, ptr noundef %c_str) unnamed_addr #4 comdat align 2 {
entry:
  %this.addr = alloca ptr, align 8
  %c_str.addr = alloca ptr, align 8
  store ptr %this, ptr %this.addr, align 8
  store ptr %c_str, ptr %c_str.addr, align 8
  %this1 = load ptr, ptr %this.addr, align 8
  %piece_ = getelementptr inbounds %"class.absl::lts_20230802::AlphaNum", ptr %this1, i32 0, i32 0
  %0 = load ptr, ptr %c_str.addr, align 8
  %call = call { i64, ptr } @_ZN4absl12lts_2023080218NullSafeStringViewEPKc(ptr noundef %0)
  %1 = getelementptr inbounds { i64, ptr }, ptr %piece_, i32 0, i32 0
  %2 = extractvalue { i64, ptr } %call, 0
  store i64 %2, ptr %1, align 8
  %3 = getelementptr inbounds { i64, ptr }, ptr %piece_, i32 0, i32 1
  %4 = extractvalue { i64, ptr } %call, 1
  store ptr %4, ptr %3, align 8
  ret void
}

; Function Attrs: mustprogress nounwind uwtable
define linkonce_odr noundef nonnull align 4 dereferenceable(4) ptr @_ZSt3minIiERKT_S2_S2_(ptr noundef nonnull align 4 dereferenceable(4) %__a, ptr noundef nonnull align 4 dereferenceable(4) %__b) #6 comdat {
entry:
  %retval = alloca ptr, align 8
  %__a.addr = alloca ptr, align 8
  %__b.addr = alloca ptr, align 8
  store ptr %__a, ptr %__a.addr, align 8
  store ptr %__b, ptr %__b.addr, align 8
  %0 = load ptr, ptr %__b.addr, align 8
  %1 = load i32, ptr %0, align 4
  %2 = load ptr, ptr %__a.addr, align 8
  %3 = load i32, ptr %2, align 4
  %cmp = icmp slt i32 %1, %3
  br i1 %cmp, label %if.then, label %if.end

if.then:                                          ; preds = %entry
  %4 = load ptr, ptr %__b.addr, align 8
  store ptr %4, ptr %retval, align 8
  br label %return

if.end:                                           ; preds = %entry
  %5 = load ptr, ptr %__a.addr, align 8
  store ptr %5, ptr %retval, align 8
  br label %return

return:                                           ; preds = %if.end, %if.then
  %6 = load ptr, ptr %retval, align 8
  ret ptr %6
}

; Function Attrs: mustprogress uwtable
define linkonce_odr noundef zeroext i1 @_ZN9grpc_core20IsTcpRcvLowatEnabledEv() #4 comdat {
entry:
  %call = call noundef zeroext i1 @_ZN9grpc_core19IsExperimentEnabledEm(i64 noundef 30)
  ret i1 %call
}

; Function Attrs: mustprogress uwtable
define internal void @_ZL15update_rcvlowatPN12_GLOBAL__N_18grpc_tcpE(ptr noundef %tcp) #4 personality ptr @__gxx_personality_v0 {
entry:
  %tcp.addr = alloca ptr, align 8
  %remaining = alloca i32, align 4
  %ref.tmp = alloca i32, align 4
  %ref.tmp19 = alloca %"class.std::__cxx11::basic_string", align 8
  %ref.tmp20 = alloca %"class.absl::lts_20230802::AlphaNum", align 8
  %ref.tmp21 = alloca %"class.absl::lts_20230802::AlphaNum", align 8
  %ref.tmp23 = alloca %"class.absl::lts_20230802::AlphaNum", align 8
  %ref.tmp24 = alloca %"class.absl::lts_20230802::AlphaNum", align 8
  %ref.tmp25 = alloca %"class.std::__cxx11::basic_string", align 8
  %exn.slot = alloca ptr, align 8
  %ehselector.slot = alloca i32, align 4
  store ptr %tcp, ptr %tcp.addr, align 8
  %call = call noundef zeroext i1 @_ZN9grpc_core20IsTcpRcvLowatEnabledEv()
  br i1 %call, label %if.end, label %if.then

if.then:                                          ; preds = %entry
  br label %return

if.end:                                           ; preds = %entry
  %0 = load ptr, ptr %tcp.addr, align 8
  %incoming_buffer = getelementptr inbounds %"struct.(anonymous namespace)::grpc_tcp", ptr %0, i32 0, i32 12
  %1 = load ptr, ptr %incoming_buffer, align 8
  %length = getelementptr inbounds %struct.grpc_slice_buffer, ptr %1, i32 0, i32 4
  %2 = load i64, ptr %length, align 8
  %conv = trunc i64 %2 to i32
  store i32 %conv, ptr %ref.tmp, align 4
  %3 = load ptr, ptr %tcp.addr, align 8
  %min_progress_size = getelementptr inbounds %"struct.(anonymous namespace)::grpc_tcp", ptr %3, i32 0, i32 29
  %call1 = call noundef nonnull align 4 dereferenceable(4) ptr @_ZSt3minIiERKT_S2_S2_(ptr noundef nonnull align 4 dereferenceable(4) %ref.tmp, ptr noundef nonnull align 4 dereferenceable(4) %min_progress_size)
  %4 = load i32, ptr %call1, align 4
  store i32 %4, ptr %remaining, align 4
  %call2 = call noundef nonnull align 4 dereferenceable(4) ptr @_ZSt3minIiERKT_S2_S2_(ptr noundef nonnull align 4 dereferenceable(4) %remaining, ptr noundef nonnull align 4 dereferenceable(4) @_ZZL15update_rcvlowatPN12_GLOBAL__N_18grpc_tcpEE12kRcvLowatMax)
  %5 = load i32, ptr %call2, align 4
  store i32 %5, ptr %remaining, align 4
  %6 = load i32, ptr %remaining, align 4
  %cmp = icmp slt i32 %6, 32768
  br i1 %cmp, label %if.then3, label %if.end4

if.then3:                                         ; preds = %if.end
  store i32 0, ptr %remaining, align 4
  br label %if.end4

if.end4:                                          ; preds = %if.then3, %if.end
  %7 = load i32, ptr %remaining, align 4
  %cmp5 = icmp sgt i32 %7, 0
  br i1 %cmp5, label %if.then6, label %if.end7

if.then6:                                         ; preds = %if.end4
  %8 = load i32, ptr %remaining, align 4
  %sub = sub nsw i32 %8, 16384
  store i32 %sub, ptr %remaining, align 4
  br label %if.end7

if.end7:                                          ; preds = %if.then6, %if.end4
  %9 = load ptr, ptr %tcp.addr, align 8
  %set_rcvlowat = getelementptr inbounds %"struct.(anonymous namespace)::grpc_tcp", ptr %9, i32 0, i32 33
  %10 = load i32, ptr %set_rcvlowat, align 8
  %cmp8 = icmp sle i32 %10, 1
  br i1 %cmp8, label %land.lhs.true, label %if.end11

land.lhs.true:                                    ; preds = %if.end7
  %11 = load i32, ptr %remaining, align 4
  %cmp9 = icmp sle i32 %11, 1
  br i1 %cmp9, label %if.then10, label %if.end11

if.then10:                                        ; preds = %land.lhs.true
  br label %return

if.end11:                                         ; preds = %land.lhs.true, %if.end7
  %12 = load ptr, ptr %tcp.addr, align 8
  %set_rcvlowat12 = getelementptr inbounds %"struct.(anonymous namespace)::grpc_tcp", ptr %12, i32 0, i32 33
  %13 = load i32, ptr %set_rcvlowat12, align 8
  %14 = load i32, ptr %remaining, align 4
  %cmp13 = icmp eq i32 %13, %14
  br i1 %cmp13, label %if.then14, label %if.end15

if.then14:                                        ; preds = %if.end11
  br label %return

if.end15:                                         ; preds = %if.end11
  %15 = load ptr, ptr %tcp.addr, align 8
  %fd = getelementptr inbounds %"struct.(anonymous namespace)::grpc_tcp", ptr %15, i32 0, i32 2
  %16 = load i32, ptr %fd, align 8
  %call16 = call i32 @setsockopt(i32 noundef %16, i32 noundef 1, i32 noundef 18, ptr noundef %remaining, i32 noundef 4) #3
  %cmp17 = icmp ne i32 %call16, 0
  br i1 %cmp17, label %if.then18, label %if.end32

if.then18:                                        ; preds = %if.end15
  call void @_ZN4absl12lts_202308028AlphaNumC2EPKc(ptr noundef nonnull align 8 dereferenceable(48) %ref.tmp20, ptr noundef @.str.52)
  %17 = load ptr, ptr %tcp.addr, align 8
  %fd22 = getelementptr inbounds %"struct.(anonymous namespace)::grpc_tcp", ptr %17, i32 0, i32 2
  %18 = load i32, ptr %fd22, align 8
  call void @_ZN4absl12lts_202308028AlphaNumC2Ei(ptr noundef nonnull align 8 dereferenceable(48) %ref.tmp21, i32 noundef %18)
  call void @_ZN4absl12lts_202308028AlphaNumC2EPKc(ptr noundef nonnull align 8 dereferenceable(48) %ref.tmp23, ptr noundef @.str.53)
  %call26 = call ptr @__errno_location() #16
  %19 = load i32, ptr %call26, align 4
  call void @_ZN9grpc_core8StrErrorB5cxx11Ei(ptr sret(%"class.std::__cxx11::basic_string") align 8 %ref.tmp25, i32 noundef %19)
  %call27 = call noundef ptr @_ZNKSt7__cxx1112basic_stringIcSt11char_traitsIcESaIcEE5c_strEv(ptr noundef nonnull align 8 dereferenceable(32) %ref.tmp25) #3
  invoke void @_ZN4absl12lts_202308028AlphaNumC2EPKc(ptr noundef nonnull align 8 dereferenceable(48) %ref.tmp24, ptr noundef %call27)
          to label %invoke.cont unwind label %lpad

invoke.cont:                                      ; preds = %if.then18
  invoke void @_ZN4absl12lts_202308026StrCatB5cxx11ERKNS0_8AlphaNumES3_S3_S3_(ptr sret(%"class.std::__cxx11::basic_string") align 8 %ref.tmp19, ptr noundef nonnull align 8 dereferenceable(48) %ref.tmp20, ptr noundef nonnull align 8 dereferenceable(48) %ref.tmp21, ptr noundef nonnull align 8 dereferenceable(48) %ref.tmp23, ptr noundef nonnull align 8 dereferenceable(48) %ref.tmp24)
          to label %invoke.cont28 unwind label %lpad

invoke.cont28:                                    ; preds = %invoke.cont
  %call29 = call noundef ptr @_ZNKSt7__cxx1112basic_stringIcSt11char_traitsIcESaIcEE5c_strEv(ptr noundef nonnull align 8 dereferenceable(32) %ref.tmp19) #3
  invoke void (ptr, i32, i32, ptr, ...) @gpr_log(ptr noundef @.str, i32 noundef 880, i32 noundef 2, ptr noundef @.str.51, ptr noundef %call29)
          to label %invoke.cont31 unwind label %lpad30

invoke.cont31:                                    ; preds = %invoke.cont28
  call void @_ZNSt7__cxx1112basic_stringIcSt11char_traitsIcESaIcEED1Ev(ptr noundef nonnull align 8 dereferenceable(32) %ref.tmp19) #3
  call void @_ZNSt7__cxx1112basic_stringIcSt11char_traitsIcESaIcEED1Ev(ptr noundef nonnull align 8 dereferenceable(32) %ref.tmp25) #3
  br label %return

lpad:                                             ; preds = %invoke.cont, %if.then18
  %20 = landingpad { ptr, i32 }
          cleanup
  %21 = extractvalue { ptr, i32 } %20, 0
  store ptr %21, ptr %exn.slot, align 8
  %22 = extractvalue { ptr, i32 } %20, 1
  store i32 %22, ptr %ehselector.slot, align 4
  br label %ehcleanup

lpad30:                                           ; preds = %invoke.cont28
  %23 = landingpad { ptr, i32 }
          cleanup
  %24 = extractvalue { ptr, i32 } %23, 0
  store ptr %24, ptr %exn.slot, align 8
  %25 = extractvalue { ptr, i32 } %23, 1
  store i32 %25, ptr %ehselector.slot, align 4
  call void @_ZNSt7__cxx1112basic_stringIcSt11char_traitsIcESaIcEED1Ev(ptr noundef nonnull align 8 dereferenceable(32) %ref.tmp19) #3
  br label %ehcleanup

ehcleanup:                                        ; preds = %lpad30, %lpad
  call void @_ZNSt7__cxx1112basic_stringIcSt11char_traitsIcESaIcEED1Ev(ptr noundef nonnull align 8 dereferenceable(32) %ref.tmp25) #3
  br label %eh.resume

if.end32:                                         ; preds = %if.end15
  %26 = load i32, ptr %remaining, align 4
  %27 = load ptr, ptr %tcp.addr, align 8
  %set_rcvlowat33 = getelementptr inbounds %"struct.(anonymous namespace)::grpc_tcp", ptr %27, i32 0, i32 33
  store i32 %26, ptr %set_rcvlowat33, align 8
  br label %return

return:                                           ; preds = %if.end32, %invoke.cont31, %if.then14, %if.then10, %if.then
  ret void

eh.resume:                                        ; preds = %ehcleanup
  %exn = load ptr, ptr %exn.slot, align 8
  %sel = load i32, ptr %ehselector.slot, align 4
  %lpad.val = insertvalue { ptr, i32 } poison, ptr %exn, 0
  %lpad.val34 = insertvalue { ptr, i32 } %lpad.val, i32 %sel, 1
  resume { ptr, i32 } %lpad.val34
}