; Function Attrs: mustprogress uwtable
define internal fastcc void @_ZL15update_rcvlowatPN12_GLOBAL__N_18grpc_tcpE(ptr nocapture noundef %tcp) unnamed_addr #6 personality ptr @__gxx_personality_v0 {
entry:
  %remaining = alloca i32, align 4
  %ref.tmp19 = alloca %"class.std::__cxx11::basic_string", align 8
  %ref.tmp20 = alloca %"class.absl::lts_20230802::AlphaNum", align 8
  %ref.tmp21 = alloca %"class.absl::lts_20230802::AlphaNum", align 8
  %ref.tmp23 = alloca %"class.absl::lts_20230802::AlphaNum", align 8
  %ref.tmp24 = alloca %"class.absl::lts_20230802::AlphaNum", align 8
  %ref.tmp25 = alloca %"class.std::__cxx11::basic_string", align 8
  %call.i = tail call noundef zeroext i1 @_ZN9grpc_core19IsExperimentEnabledEm(i64 noundef 30)
  br i1 %call.i, label %if.end, label %return

if.end:                                           ; preds = %entry
  %incoming_buffer = getelementptr inbounds i8, ptr %tcp, i64 336
  %0 = load ptr, ptr %incoming_buffer, align 8
  %length = getelementptr inbounds i8, ptr %0, i64 32
  %1 = load i64, ptr %length, align 8
  %conv = trunc i64 %1 to i32
  %min_progress_size = getelementptr inbounds i8, ptr %tcp, i64 628
  %2 = load i32, ptr %min_progress_size, align 4
  %.sroa.speculated = tail call i32 @llvm.smin.i32(i32 %2, i32 %conv)
  %3 = tail call i32 @llvm.smin.i32(i32 %.sroa.speculated, i32 16777216)
  %cmp = icmp sgt i32 %.sroa.speculated, 32767
  %4 = add nsw i32 %3, -16384
  %spec.select = select i1 %cmp, i32 %4, i32 0
  store i32 %spec.select, ptr %remaining, align 4
  %set_rcvlowat = getelementptr inbounds i8, ptr %tcp, i64 760
  %5 = load i32, ptr %set_rcvlowat, align 8
  %cmp8 = icmp slt i32 %5, 2
  %cmp9 = icmp slt i32 %spec.select, 2
  %or.cond = select i1 %cmp8, i1 %cmp9, i1 false
  %cmp13 = icmp eq i32 %5, %spec.select
  %or.cond8 = select i1 %or.cond, i1 true, i1 %cmp13
  br i1 %or.cond8, label %return, label %if.end15

if.end15:                                         ; preds = %if.end
  %fd = getelementptr inbounds i8, ptr %tcp, i64 16
  %6 = load i32, ptr %fd, align 8
  %call16 = call i32 @setsockopt(i32 noundef %6, i32 noundef 1, i32 noundef 18, ptr noundef nonnull %remaining, i32 noundef 4) #24
  %cmp17.not = icmp eq i32 %call16, 0
  br i1 %cmp17.not, label %if.end32, label %if.then18

if.then18:                                        ; preds = %if.end15
  store i64 29, ptr %ref.tmp20, align 8
  %7 = getelementptr inbounds i8, ptr %ref.tmp20, i64 8
  store ptr @.str.52, ptr %7, align 8
  %8 = load i32, ptr %fd, align 8
  %digits_.i = getelementptr inbounds i8, ptr %ref.tmp21, i64 16
  %call.i11 = call noundef ptr @_ZN4absl12lts_2023080216numbers_internal15FastIntToBufferEiPc(i32 noundef %8, ptr noundef nonnull %digits_.i)
  %sub.ptr.lhs.cast.i = ptrtoint ptr %call.i11 to i64
  %sub.ptr.rhs.cast.i = ptrtoint ptr %digits_.i to i64
  %sub.ptr.sub.i = sub i64 %sub.ptr.lhs.cast.i, %sub.ptr.rhs.cast.i
  store i64 %sub.ptr.sub.i, ptr %ref.tmp21, align 8
  %_M_str.i.i = getelementptr inbounds i8, ptr %ref.tmp21, i64 8
  store ptr %digits_.i, ptr %_M_str.i.i, align 8
  store i64 5, ptr %ref.tmp23, align 8
  %9 = getelementptr inbounds i8, ptr %ref.tmp23, i64 8
  store ptr @.str.53, ptr %9, align 8
  %call26 = tail call ptr @__errno_location() #22
  %10 = load i32, ptr %call26, align 4
  call void @_ZN9grpc_core8StrErrorB5cxx11Ei(ptr nonnull sret(%"class.std::__cxx11::basic_string") align 8 %ref.tmp25, i32 noundef %10)
  %call27 = call noundef ptr @_ZNKSt7__cxx1112basic_stringIcSt11char_traitsIcESaIcEE5c_strEv(ptr noundef nonnull align 8 dereferenceable(32) %ref.tmp25) #24
  %tobool.not.i.i = icmp eq ptr %call27, null
  br i1 %tobool.not.i.i, label %invoke.cont, label %cond.true.i.i

cond.true.i.i:                                    ; preds = %if.then18
  %call.i.i.i.i13 = call noundef i64 @strlen(ptr noundef nonnull dereferenceable(1) %call27) #24
  br label %invoke.cont

invoke.cont:                                      ; preds = %cond.true.i.i, %if.then18
  %retval.sroa.0.0.i.i = phi i64 [ %call.i.i.i.i13, %cond.true.i.i ], [ 0, %if.then18 ]
  store i64 %retval.sroa.0.0.i.i, ptr %ref.tmp24, align 8
  %11 = getelementptr inbounds i8, ptr %ref.tmp24, i64 8
  store ptr %call27, ptr %11, align 8
  invoke void @_ZN4absl12lts_202308026StrCatB5cxx11ERKNS0_8AlphaNumES3_S3_S3_(ptr nonnull sret(%"class.std::__cxx11::basic_string") align 8 %ref.tmp19, ptr noundef nonnull align 8 dereferenceable(48) %ref.tmp20, ptr noundef nonnull align 8 dereferenceable(48) %ref.tmp21, ptr noundef nonnull align 8 dereferenceable(48) %ref.tmp23, ptr noundef nonnull align 8 dereferenceable(48) %ref.tmp24)
          to label %invoke.cont28 unwind label %lpad

invoke.cont28:                                    ; preds = %invoke.cont
  %call29 = call noundef ptr @_ZNKSt7__cxx1112basic_stringIcSt11char_traitsIcESaIcEE5c_strEv(ptr noundef nonnull align 8 dereferenceable(32) %ref.tmp19) #24
  invoke void (ptr, i32, i32, ptr, ...) @gpr_log(ptr noundef nonnull @.str, i32 noundef 880, i32 noundef 2, ptr noundef nonnull @.str.51, ptr noundef %call29)
          to label %invoke.cont31 unwind label %lpad30

invoke.cont31:                                    ; preds = %invoke.cont28
  call void @_ZNSt7__cxx1112basic_stringIcSt11char_traitsIcESaIcEED1Ev(ptr noundef nonnull align 8 dereferenceable(32) %ref.tmp19) #24
  call void @_ZNSt7__cxx1112basic_stringIcSt11char_traitsIcESaIcEED1Ev(ptr noundef nonnull align 8 dereferenceable(32) %ref.tmp25) #24
  br label %return

lpad:                                             ; preds = %invoke.cont
  %12 = landingpad { ptr, i32 }
          cleanup
  br label %ehcleanup

lpad30:                                           ; preds = %invoke.cont28
  %13 = landingpad { ptr, i32 }
          cleanup
  call void @_ZNSt7__cxx1112basic_stringIcSt11char_traitsIcESaIcEED1Ev(ptr noundef nonnull align 8 dereferenceable(32) %ref.tmp19) #24
  br label %ehcleanup

ehcleanup:                                        ; preds = %lpad30, %lpad
  %.pn = phi { ptr, i32 } [ %13, %lpad30 ], [ %12, %lpad ]
  call void @_ZNSt7__cxx1112basic_stringIcSt11char_traitsIcESaIcEED1Ev(ptr noundef nonnull align 8 dereferenceable(32) %ref.tmp25) #24
  resume { ptr, i32 } %.pn

if.end32:                                         ; preds = %if.end15
  %14 = load i32, ptr %remaining, align 4
  store i32 %14, ptr %set_rcvlowat, align 8
  br label %return

return:                                           ; preds = %if.end, %entry, %if.end32, %invoke.cont31
  ret void
}